target datalayout = "e-m:e-p270:32:32-p271:32:32-p272:64:64-i64:64-i128:128-f80:128-n8:16:32:64-S128"
target triple = "x86_64-pc-linux-gnu"

%struct.PREDICATELOCKTARGETTAG = type { i32, i32, i32, i32 }
%struct.LOCALPREDICATELOCK = type { %struct.PREDICATELOCKTARGETTAG, i8, i32 }

@PredicateLockTargetHash = internal global ptr null, align 8
@LocalPredicateLockHash = internal global ptr null, align 8

; Function Attrs: nounwind uwtable
define internal zeroext i1 @GetParentPredicateLockTag(ptr noundef %0, ptr noundef %1) #0 {
  %3 = alloca i1, align 1
  %4 = alloca ptr, align 8
  %5 = alloca ptr, align 8
  store ptr %0, ptr %4, align 8
  store ptr %1, ptr %5, align 8
  %6 = load ptr, ptr %4, align 8
  %7 = getelementptr inbounds nuw %struct.PREDICATELOCKTARGETTAG, ptr %6, i32 0, i32 3
  %8 = load i32, ptr %7, align 4
  %9 = icmp ne i32 %8, 0
  br i1 %9, label %10, label %11

10:                                               ; preds = %2
  br label %17

11:                                               ; preds = %2
  %12 = load ptr, ptr %4, align 8
  %13 = getelementptr inbounds nuw %struct.PREDICATELOCKTARGETTAG, ptr %12, i32 0, i32 2
  %14 = load i32, ptr %13, align 4
  %15 = icmp ne i32 %14, -1
  %16 = select i1 %15, i32 1, i32 0
  br label %17

17:                                               ; preds = %11, %10
  %18 = phi i32 [ 2, %10 ], [ %16, %11 ]
  switch i32 %18, label %53 [
    i32 0, label %19
    i32 1, label %20
    i32 2, label %35
  ]

19:                                               ; preds = %17
  store i1 false, ptr %3, align 1
  br label %54

20:                                               ; preds = %17
  %21 = load ptr, ptr %4, align 8
  %22 = getelementptr inbounds nuw %struct.PREDICATELOCKTARGETTAG, ptr %21, i32 0, i32 0
  %23 = load i32, ptr %22, align 4
  %24 = load ptr, ptr %5, align 8
  %25 = getelementptr inbounds nuw %struct.PREDICATELOCKTARGETTAG, ptr %24, i32 0, i32 0
  store i32 %23, ptr %25, align 4
  %26 = load ptr, ptr %4, align 8
  %27 = getelementptr inbounds nuw %struct.PREDICATELOCKTARGETTAG, ptr %26, i32 0, i32 1
  %28 = load i32, ptr %27, align 4
  %29 = load ptr, ptr %5, align 8
  %30 = getelementptr inbounds nuw %struct.PREDICATELOCKTARGETTAG, ptr %29, i32 0, i32 1
  store i32 %28, ptr %30, align 4
  %31 = load ptr, ptr %5, align 8
  %32 = getelementptr inbounds nuw %struct.PREDICATELOCKTARGETTAG, ptr %31, i32 0, i32 2
  store i32 -1, ptr %32, align 4
  %33 = load ptr, ptr %5, align 8
  %34 = getelementptr inbounds nuw %struct.PREDICATELOCKTARGETTAG, ptr %33, i32 0, i32 3
  store i32 0, ptr %34, align 4
  store i1 true, ptr %3, align 1
  br label %54

35:                                               ; preds = %17
  %36 = load ptr, ptr %4, align 8
  %37 = getelementptr inbounds nuw %struct.PREDICATELOCKTARGETTAG, ptr %36, i32 0, i32 0
  %38 = load i32, ptr %37, align 4
  %39 = load ptr, ptr %5, align 8
  %40 = getelementptr inbounds nuw %struct.PREDICATELOCKTARGETTAG, ptr %39, i32 0, i32 0
  store i32 %38, ptr %40, align 4
  %41 = load ptr, ptr %4, align 8
  %42 = getelementptr inbounds nuw %struct.PREDICATELOCKTARGETTAG, ptr %41, i32 0, i32 1
  %43 = load i32, ptr %42, align 4
  %44 = load ptr, ptr %5, align 8
  %45 = getelementptr inbounds nuw %struct.PREDICATELOCKTARGETTAG, ptr %44, i32 0, i32 1
  store i32 %43, ptr %45, align 4
  %46 = load ptr, ptr %4, align 8
  %47 = getelementptr inbounds nuw %struct.PREDICATELOCKTARGETTAG, ptr %46, i32 0, i32 2
  %48 = load i32, ptr %47, align 4
  %49 = load ptr, ptr %5, align 8
  %50 = getelementptr inbounds nuw %struct.PREDICATELOCKTARGETTAG, ptr %49, i32 0, i32 2
  store i32 %48, ptr %50, align 4
  %51 = load ptr, ptr %5, align 8
  %52 = getelementptr inbounds nuw %struct.PREDICATELOCKTARGETTAG, ptr %51, i32 0, i32 3
  store i32 0, ptr %52, align 4
  store i1 true, ptr %3, align 1
  br label %54

53:                                               ; preds = %17
  store i1 false, ptr %3, align 1
  br label %54

54:                                               ; preds = %53, %35, %20, %19
  %55 = load i1, ptr %3, align 1
  ret i1 %55
}

; Function Attrs: nounwind uwtable
define internal void @DecrementParentLocks(ptr noundef %0) #0 {
  %2 = alloca ptr, align 8
  %3 = alloca %struct.PREDICATELOCKTARGETTAG, align 4
  %4 = alloca %struct.PREDICATELOCKTARGETTAG, align 4
  %5 = alloca i32, align 4
  %6 = alloca ptr, align 8
  %7 = alloca ptr, align 8
  %8 = alloca i32, align 4
  store ptr %0, ptr %2, align 8
  call void @llvm.lifetime.start.p0(i64 16, ptr %3) #10
  call void @llvm.lifetime.start.p0(i64 16, ptr %4) #10
  %9 = load ptr, ptr %2, align 8
  call void @llvm.memcpy.p0.p0.i64(ptr align 4 %3, ptr align 4 %9, i64 16, i1 false)
  br label %10

10:                                               ; preds = %50, %48, %1
  %11 = call zeroext i1 @GetParentPredicateLockTag(ptr noundef %3, ptr noundef %4)
  br i1 %11, label %12, label %51

12:                                               ; preds = %10
  call void @llvm.lifetime.start.p0(i64 4, ptr %5) #10
  call void @llvm.lifetime.start.p0(i64 8, ptr %6) #10
  call void @llvm.lifetime.start.p0(i64 8, ptr %7) #10
  call void @llvm.memcpy.p0.p0.i64(ptr align 4 %3, ptr align 4 %4, i64 16, i1 false)
  %13 = load ptr, ptr @PredicateLockTargetHash, align 8
  %14 = call i32 @get_hash_value(ptr noundef %13, ptr noundef %3)
  store i32 %14, ptr %5, align 4
  %15 = load ptr, ptr @LocalPredicateLockHash, align 8
  %16 = load i32, ptr %5, align 4
  %17 = call ptr @hash_search_with_hash_value(ptr noundef %15, ptr noundef %3, i32 noundef %16, i32 noundef 0, ptr noundef null)
  store ptr %17, ptr %6, align 8
  %18 = load ptr, ptr %6, align 8
  %19 = icmp eq ptr %18, null
  br i1 %19, label %20, label %21

20:                                               ; preds = %12
  store i32 2, ptr %8, align 4
  br label %48, !llvm.loop !45

21:                                               ; preds = %12
  %22 = load ptr, ptr %6, align 8
  %23 = getelementptr inbounds nuw %struct.LOCALPREDICATELOCK, ptr %22, i32 0, i32 2
  %24 = load i32, ptr %23, align 4
  %25 = add i32 %24, -1
  store i32 %25, ptr %23, align 4
  %26 = load ptr, ptr %6, align 8
  %27 = getelementptr inbounds nuw %struct.LOCALPREDICATELOCK, ptr %26, i32 0, i32 2
  %28 = load i32, ptr %27, align 4
  %29 = icmp slt i32 %28, 0
  br i1 %29, label %30, label %33

30:                                               ; preds = %21
  %31 = load ptr, ptr %6, align 8
  %32 = getelementptr inbounds nuw %struct.LOCALPREDICATELOCK, ptr %31, i32 0, i32 2
  store i32 0, ptr %32, align 4
  br label %33

33:                                               ; preds = %30, %21
  %34 = load ptr, ptr %6, align 8
  %35 = getelementptr inbounds nuw %struct.LOCALPREDICATELOCK, ptr %34, i32 0, i32 2
  %36 = load i32, ptr %35, align 4
  %37 = icmp eq i32 %36, 0
  br i1 %37, label %38, label %47

38:                                               ; preds = %33
  %39 = load ptr, ptr %6, align 8
  %40 = getelementptr inbounds nuw %struct.LOCALPREDICATELOCK, ptr %39, i32 0, i32 1
  %41 = load i8, ptr %40, align 4, !range !4, !noundef !5
  %42 = trunc i8 %41 to i1
  br i1 %42, label %47, label %43

43:                                               ; preds = %38
  %44 = load ptr, ptr @LocalPredicateLockHash, align 8
  %45 = load i32, ptr %5, align 4
  %46 = call ptr @hash_search_with_hash_value(ptr noundef %44, ptr noundef %3, i32 noundef %45, i32 noundef 2, ptr noundef null)
  store ptr %46, ptr %7, align 8
  br label %47

47:                                               ; preds = %43, %38, %33
  store i32 0, ptr %8, align 4
  br label %48

48:                                               ; preds = %47, %20
  call void @llvm.lifetime.end.p0(i64 8, ptr %7) #10
  call void @llvm.lifetime.end.p0(i64 8, ptr %6) #10
  call void @llvm.lifetime.end.p0(i64 4, ptr %5) #10
  %49 = load i32, ptr %8, align 4
  switch i32 %49, label %52 [
    i32 0, label %50
    i32 2, label %10
  ]

50:                                               ; preds = %48
  br label %10, !llvm.loop !45

51:                                               ; preds = %10
  call void @llvm.lifetime.end.p0(i64 16, ptr %4) #10
  call void @llvm.lifetime.end.p0(i64 16, ptr %3) #10
  ret void

52:                                               ; preds = %48
  unreachable
}