; Function Attrs: nounwind uwtable
define internal fastcc void @DecrementParentLocks(ptr noundef nonnull readonly captures(none) %0) unnamed_addr #0 {
  %2 = alloca %struct.PREDICATELOCKTARGETTAG, align 4
  call void @llvm.lifetime.start.p0(i64 16, ptr nonnull %2) #12
  call void @llvm.memcpy.p0.p0.i64(ptr noundef nonnull align 4 dereferenceable(16) %2, ptr noundef nonnull align 4 dereferenceable(16) %0, i64 16, i1 false)
  %3 = getelementptr inbounds nuw i8, ptr %2, i64 8
  %4 = getelementptr inbounds nuw i8, ptr %2, i64 12
  %5 = getelementptr inbounds nuw i8, ptr %2, i64 4
  br label %6

6:                                                ; preds = %.backedge, %1
  %7 = load i32, ptr %4, align 4
  %.not.i = icmp eq i32 %7, 0
  br i1 %.not.i, label %8, label %.thread.i

8:                                                ; preds = %6
  %9 = load i32, ptr %3, align 4
  %.not16.not.i = icmp eq i32 %9, -1
  br i1 %.not16.not.i, label %GetParentPredicateLockTag.exit, label %10

10:                                               ; preds = %8
  %11 = load i32, ptr %5, align 4
  br label %14

.thread.i:                                        ; preds = %6
  %12 = load i32, ptr %5, align 4
  %13 = load i32, ptr %3, align 4
  br label %14

14:                                               ; preds = %.thread.i, %10
  %.sroa.7.1.ph = phi i32 [ -1, %10 ], [ %13, %.thread.i ]
  %.sroa.5.2.ph = phi i32 [ %11, %10 ], [ %12, %.thread.i ]
  store i32 %.sroa.5.2.ph, ptr %5, align 4
  store i32 %.sroa.7.1.ph, ptr %3, align 4
  store i32 0, ptr %4, align 4
  %15 = load ptr, ptr @PredicateLockTargetHash, align 8
  %16 = call i32 @get_hash_value(ptr noundef %15, ptr noundef nonnull %2) #12
  %17 = load ptr, ptr @LocalPredicateLockHash, align 8
  %18 = call ptr @hash_search_with_hash_value(ptr noundef %17, ptr noundef nonnull %2, i32 noundef %16, i32 noundef 0, ptr noundef null) #12
  %19 = icmp eq ptr %18, null
  br i1 %19, label %.backedge, label %20

20:                                               ; preds = %14
  %21 = getelementptr inbounds nuw i8, ptr %18, i64 20
  %22 = load i32, ptr %21, align 4
  %23 = add i32 %22, -1
  %spec.select = call i32 @llvm.smax.i32(i32 %23, i32 0)
  store i32 %spec.select, ptr %21, align 4
  %24 = icmp slt i32 %23, 1
  br i1 %24, label %25, label %.backedge

.backedge:                                        ; preds = %20, %25, %29, %14
  br label %6, !llvm.loop !50

25:                                               ; preds = %20
  %26 = getelementptr inbounds nuw i8, ptr %18, i64 16
  %27 = load i8, ptr %26, align 4, !range !4, !noundef !5
  %28 = trunc nuw i8 %27 to i1
  br i1 %28, label %.backedge, label %29

29:                                               ; preds = %25
  %30 = load ptr, ptr @LocalPredicateLockHash, align 8
  %31 = call ptr @hash_search_with_hash_value(ptr noundef %30, ptr noundef nonnull %2, i32 noundef %16, i32 noundef 2, ptr noundef null) #12
  br label %.backedge

GetParentPredicateLockTag.exit:                   ; preds = %8
  call void @llvm.lifetime.end.p0(i64 16, ptr nonnull %2) #12
  ret void
}